target datalayout = "e-m:e-p270:32:32-p271:32:32-p272:64:64-i64:64-i128:128-f80:128-n8:16:32:64-S128"
target triple = "x86_64-pc-linux-gnu"

; Function Attrs: inlinehint nounwind uwtable
define internal void @shuffle_bytes_0321_c(ptr noundef %0, ptr noundef %1, i32 noundef %2) #4 {
  %4 = alloca ptr, align 8
  %5 = alloca ptr, align 8
  %6 = alloca i32, align 4
  %7 = alloca i32, align 4
  %8 = alloca ptr, align 8
  %9 = alloca ptr, align 8
  %10 = alloca i32, align 4
  %11 = alloca i32, align 4
  store ptr %0, ptr %4, align 8, !tbaa !4
  store ptr %1, ptr %5, align 8, !tbaa !4
  store i32 %2, ptr %6, align 4, !tbaa !9
  call void @llvm.lifetime.start.p0(i64 4, ptr %7) #5
  %12 = load i32, ptr %6, align 4, !tbaa !9
  %13 = sub nsw i32 15, %12
  store i32 %13, ptr %7, align 4, !tbaa !9
  call void @llvm.lifetime.start.p0(i64 8, ptr %8) #5
  %14 = load ptr, ptr %4, align 8, !tbaa !4
  %15 = load i32, ptr %7, align 4, !tbaa !9
  %16 = sext i32 %15 to i64
  %17 = sub i64 0, %16
  %18 = getelementptr inbounds i8, ptr %14, i64 %17
  store ptr %18, ptr %8, align 8, !tbaa !4
  call void @llvm.lifetime.start.p0(i64 8, ptr %9) #5
  %19 = load ptr, ptr %5, align 8, !tbaa !4
  %20 = load i32, ptr %7, align 4, !tbaa !9
  %21 = sext i32 %20 to i64
  %22 = sub i64 0, %21
  %23 = getelementptr inbounds i8, ptr %19, i64 %22
  store ptr %23, ptr %9, align 8, !tbaa !4
  br label %24

24:                                               ; preds = %48, %3
  %25 = load i32, ptr %7, align 4, !tbaa !9
  %26 = icmp slt i32 %25, 15
  br i1 %26, label %27, label %51

27:                                               ; preds = %24
  call void @llvm.lifetime.start.p0(i64 4, ptr %10) #5
  %28 = load ptr, ptr %8, align 8, !tbaa !4
  %29 = load i32, ptr %7, align 4, !tbaa !9
  %30 = sext i32 %29 to i64
  %31 = getelementptr inbounds i8, ptr %28, i64 %30
  %32 = load i32, ptr %31, align 4, !tbaa !9
  store i32 %32, ptr %10, align 4, !tbaa !9
  call void @llvm.lifetime.start.p0(i64 4, ptr %11) #5
  %33 = load i32, ptr %10, align 4, !tbaa !9
  %34 = and i32 %33, 16711935
  store i32 %34, ptr %11, align 4, !tbaa !9
  %35 = load i32, ptr %10, align 4, !tbaa !9
  %36 = and i32 %35, -16711936
  store i32 %36, ptr %10, align 4, !tbaa !9
  %37 = load i32, ptr %10, align 4, !tbaa !9
  %38 = lshr i32 %37, 16
  %39 = load i32, ptr %11, align 4, !tbaa !9
  %40 = add i32 %38, %39
  %41 = load i32, ptr %10, align 4, !tbaa !9
  %42 = shl i32 %41, 16
  %43 = add i32 %40, %42
  %44 = load ptr, ptr %9, align 8, !tbaa !4
  %45 = load i32, ptr %7, align 4, !tbaa !9
  %46 = sext i32 %45 to i64
  %47 = getelementptr inbounds i8, ptr %44, i64 %46
  store i32 %43, ptr %47, align 4, !tbaa !9
  call void @llvm.lifetime.end.p0(i64 4, ptr %11) #5
  call void @llvm.lifetime.end.p0(i64 4, ptr %10) #5
  br label %48

48:                                               ; preds = %27
  %49 = load i32, ptr %7, align 4, !tbaa !9
  %50 = add nsw i32 %49, 4
  store i32 %50, ptr %7, align 4, !tbaa !9
  br label %24, !llvm.loop !67

51:                                               ; preds = %24
  call void @llvm.lifetime.end.p0(i64 8, ptr %9) #5
  call void @llvm.lifetime.end.p0(i64 8, ptr %8) #5
  call void @llvm.lifetime.end.p0(i64 4, ptr %7) #5
  ret void
}